; ModuleID = '7/674.c'
source_filename = "7/674.c"
target datalayout = "e-m:e-p270:32:32-p271:32:32-p272:64:64-i64:64-f80:128-n8:16:32:64-S128"
target triple = "x86_64-pc-linux-gnu"

@.str = private unnamed_addr constant [7 x i8] c"%s%s%s\00", align 1
@.str.1 = private unnamed_addr constant [3 x i8] c"%s\00", align 1

; Function Attrs: noinline nounwind uwtable
define dso_local i32 @main() #0 {
  %1 = alloca i32, align 4
  %2 = alloca i32, align 4
  %3 = alloca i32, align 4
  %4 = alloca i32, align 4
  %5 = alloca i32, align 4
  %6 = alloca i32, align 4
  %7 = alloca i32, align 4
  %8 = alloca i32, align 4
  %9 = alloca i32, align 4
  %10 = alloca i32, align 4
  %11 = alloca i32, align 4
  %12 = alloca i32, align 4
  %13 = alloca i32, align 4
  %14 = alloca i32, align 4
  %15 = alloca [256 x i8], align 16
  %16 = alloca [256 x i8], align 16
  %17 = alloca [256 x i8], align 16
  %18 = alloca [256 x i8], align 16
  %19 = alloca [256 x i8], align 16
  store i32 0, i32* %1, align 4
  store i32 0, i32* %8, align 4
  store i32 0, i32* %9, align 4
  store i32 0, i32* %10, align 4
  store i32 0, i32* %13, align 4
  store i32 0, i32* %14, align 4
  %20 = getelementptr inbounds [256 x i8], [256 x i8]* %15, i64 0, i64 0
  %21 = call i32 (i8*, ...) bitcast (i32 (...)* @gets to i32 (i8*, ...)*)(i8* %20)
  %22 = getelementptr inbounds [256 x i8], [256 x i8]* %16, i64 0, i64 0
  %23 = call i32 (i8*, ...) bitcast (i32 (...)* @gets to i32 (i8*, ...)*)(i8* %22)
  %24 = getelementptr inbounds [256 x i8], [256 x i8]* %17, i64 0, i64 0
  %25 = call i32 (i8*, ...) bitcast (i32 (...)* @gets to i32 (i8*, ...)*)(i8* %24)
  %26 = getelementptr inbounds [256 x i8], [256 x i8]* %15, i64 0, i64 0
  %27 = call i64 @strlen(i8* %26) #3
  %28 = trunc i64 %27 to i32
  store i32 %28, i32* %3, align 4
  %29 = getelementptr inbounds [256 x i8], [256 x i8]* %16, i64 0, i64 0
  %30 = call i64 @strlen(i8* %29) #3
  %31 = trunc i64 %30 to i32
  store i32 %31, i32* %4, align 4
  %32 = getelementptr inbounds [256 x i8], [256 x i8]* %17, i64 0, i64 0
  %33 = call i64 @strlen(i8* %32) #3
  %34 = trunc i64 %33 to i32
  store i32 %34, i32* %5, align 4
  %35 = load i32, i32* %9, align 4
  store i32 %35, i32* %9, align 4
  br label %36

36:                                               ; preds = %81, %0
  %37 = load i32, i32* %9, align 4
  %38 = load i32, i32* %3, align 4
  %39 = icmp slt i32 %37, %38
  br i1 %39, label %40, label %84

40:                                               ; preds = %36
  %41 = load i32, i32* %9, align 4
  %42 = sext i32 %41 to i64
  %43 = getelementptr inbounds [256 x i8], [256 x i8]* %15, i64 0, i64 %42
  %44 = load i8, i8* %43, align 1
  %45 = sext i8 %44 to i32
  %46 = getelementptr inbounds [256 x i8], [256 x i8]* %16, i64 0, i64 0
  %47 = load i8, i8* %46, align 16
  %48 = sext i8 %47 to i32
  %49 = icmp eq i32 %45, %48
  br i1 %49, label %50, label %80

50:                                               ; preds = %40
  %51 = load i32, i32* %9, align 4
  store i32 %51, i32* %11, align 4
  store i32 0, i32* %12, align 4
  br label %52

52:                                               ; preds = %70, %50
  %53 = load i32, i32* %12, align 4
  %54 = load i32, i32* %4, align 4
  %55 = icmp slt i32 %53, %54
  br i1 %55, label %56, label %75

56:                                               ; preds = %52
  %57 = load i32, i32* %11, align 4
  %58 = sext i32 %57 to i64
  %59 = getelementptr inbounds [256 x i8], [256 x i8]* %15, i64 0, i64 %58
  %60 = load i8, i8* %59, align 1
  %61 = sext i8 %60 to i32
  %62 = load i32, i32* %12, align 4
  %63 = sext i32 %62 to i64
  %64 = getelementptr inbounds [256 x i8], [256 x i8]* %16, i64 0, i64 %63
  %65 = load i8, i8* %64, align 1
  %66 = sext i8 %65 to i32
  %67 = icmp ne i32 %61, %66
  br i1 %67, label %68, label %69

68:                                               ; preds = %56
  store i32 1, i32* %13, align 4
  br label %69

69:                                               ; preds = %68, %56
  br label %70

70:                                               ; preds = %69
  %71 = load i32, i32* %11, align 4
  %72 = add nsw i32 %71, 1
  store i32 %72, i32* %11, align 4
  %73 = load i32, i32* %12, align 4
  %74 = add nsw i32 %73, 1
  store i32 %74, i32* %12, align 4
  br label %52

75:                                               ; preds = %52
  %76 = load i32, i32* %13, align 4
  %77 = icmp eq i32 %76, 1
  br i1 %77, label %78, label %79

78:                                               ; preds = %75
  store i32 0, i32* %13, align 4
  br label %81

79:                                               ; preds = %75
  store i32 1, i32* %14, align 4
  br label %84

80:                                               ; preds = %40
  br label %81

81:                                               ; preds = %80, %78
  %82 = load i32, i32* %9, align 4
  %83 = add nsw i32 %82, 1
  store i32 %83, i32* %9, align 4
  br label %36

84:                                               ; preds = %79, %36
  %85 = load i32, i32* %14, align 4
  %86 = icmp eq i32 %85, 1
  br i1 %86, label %87, label %153

87:                                               ; preds = %84
  store i32 0, i32* %2, align 4
  store i32 0, i32* %6, align 4
  br label %88

88:                                               ; preds = %104, %87
  %89 = load i32, i32* %2, align 4
  %90 = load i32, i32* %9, align 4
  %91 = icmp slt i32 %89, %90
  %92 = zext i1 %91 to i32
  %93 = load i32, i32* %6, align 4
  %94 = load i32, i32* %9, align 4
  %95 = icmp slt i32 %93, %94
  br i1 %95, label %96, label %109

96:                                               ; preds = %88
  %97 = load i32, i32* %2, align 4
  %98 = sext i32 %97 to i64
  %99 = getelementptr inbounds [256 x i8], [256 x i8]* %15, i64 0, i64 %98
  %100 = load i8, i8* %99, align 1
  %101 = load i32, i32* %6, align 4
  %102 = sext i32 %101 to i64
  %103 = getelementptr inbounds [256 x i8], [256 x i8]* %18, i64 0, i64 %102
  store i8 %100, i8* %103, align 1
  br label %104

104:                                              ; preds = %96
  %105 = load i32, i32* %6, align 4
  %106 = add nsw i32 %105, 1
  store i32 %106, i32* %6, align 4
  %107 = load i32, i32* %2, align 4
  %108 = add nsw i32 %107, 1
  store i32 %108, i32* %2, align 4
  br label %88

109:                                              ; preds = %88
  %110 = load i32, i32* %9, align 4
  %111 = sext i32 %110 to i64
  %112 = getelementptr inbounds [256 x i8], [256 x i8]* %18, i64 0, i64 %111
  store i8 0, i8* %112, align 1
  %113 = load i32, i32* %9, align 4
  %114 = load i32, i32* %4, align 4
  %115 = add nsw i32 %113, %114
  store i32 %115, i32* %2, align 4
  store i32 0, i32* %7, align 4
  br label %116

116:                                              ; preds = %136, %109
  %117 = load i32, i32* %2, align 4
  %118 = load i32, i32* %3, align 4
  %119 = icmp slt i32 %117, %118
  %120 = zext i1 %119 to i32
  %121 = load i32, i32* %7, align 4
  %122 = load i32, i32* %3, align 4
  %123 = load i32, i32* %9, align 4
  %124 = sub nsw i32 %122, %123
  %125 = load i32, i32* %4, align 4
  %126 = sub nsw i32 %124, %125
  %127 = icmp slt i32 %121, %126
  br i1 %127, label %128, label %141

128:                                              ; preds = %116
  %129 = load i32, i32* %2, align 4
  %130 = sext i32 %129 to i64
  %131 = getelementptr inbounds [256 x i8], [256 x i8]* %15, i64 0, i64 %130
  %132 = load i8, i8* %131, align 1
  %133 = load i32, i32* %7, align 4
  %134 = sext i32 %133 to i64
  %135 = getelementptr inbounds [256 x i8], [256 x i8]* %19, i64 0, i64 %134
  store i8 %132, i8* %135, align 1
  br label %136

136:                                              ; preds = %128
  %137 = load i32, i32* %7, align 4
  %138 = add nsw i32 %137, 1
  store i32 %138, i32* %7, align 4
  %139 = load i32, i32* %2, align 4
  %140 = add nsw i32 %139, 1
  store i32 %140, i32* %2, align 4
  br label %116

141:                                              ; preds = %116
  %142 = load i32, i32* %3, align 4
  %143 = load i32, i32* %9, align 4
  %144 = sub nsw i32 %142, %143
  %145 = load i32, i32* %4, align 4
  %146 = sub nsw i32 %144, %145
  %147 = sext i32 %146 to i64
  %148 = getelementptr inbounds [256 x i8], [256 x i8]* %19, i64 0, i64 %147
  store i8 0, i8* %148, align 1
  %149 = getelementptr inbounds [256 x i8], [256 x i8]* %18, i64 0, i64 0
  %150 = getelementptr inbounds [256 x i8], [256 x i8]* %17, i64 0, i64 0
  %151 = getelementptr inbounds [256 x i8], [256 x i8]* %19, i64 0, i64 0
  %152 = call i32 (i8*, ...) @printf(i8* getelementptr inbounds ([7 x i8], [7 x i8]* @.str, i64 0, i64 0), i8* %149, i8* %150, i8* %151)
  br label %156

153:                                              ; preds = %84
  %154 = getelementptr inbounds [256 x i8], [256 x i8]* %15, i64 0, i64 0
  %155 = call i32 (i8*, ...) @printf(i8* getelementptr inbounds ([3 x i8], [3 x i8]* @.str.1, i64 0, i64 0), i8* %154)
  br label %156

156:                                              ; preds = %153, %141
  ret i32 0
}

declare dso_local i32 @gets(...) #1

; Function Attrs: nounwind readonly
declare dso_local i64 @strlen(i8*) #2

declare dso_local i32 @printf(i8*, ...) #1


!llvm.module.flags = !{!0}
!llvm.ident = !{!1}

!0 = !{i32 1, !"wchar_size", i32 4}
!1 = !{!"clang version 10.0.0-4ubuntu1 "}
